; Function Attrs: inlinehint mustprogress uwtable
define internal fastcc void @_ZN5arrow12_GLOBAL__N_113PrettyPrinter6IndentEv(ptr noundef nonnull readonly align 8 captures(none) dereferenceable(24) %0) unnamed_addr #7 align 2 {
  %2 = getelementptr inbounds nuw i8, ptr %0, i64 8
  %3 = load i32, ptr %2, align 8, !tbaa !58
  %4 = icmp sgt i32 %3, 0
  br i1 %4, label %.lr.ph, label %._crit_edge

.lr.ph:                                           ; preds = %1
  %5 = getelementptr inbounds nuw i8, ptr %0, i64 16
  br label %6

._crit_edge:                                      ; preds = %6, %1
  ret void

6:                                                ; preds = %.lr.ph, %6
  %.02 = phi i32 [ 0, %.lr.ph ], [ %9, %6 ]
  %7 = load ptr, ptr %5, align 8, !tbaa !61
  %8 = tail call noundef nonnull align 8 dereferenceable(8) ptr @_ZSt16__ostream_insertIcSt11char_traitsIcEERSt13basic_ostreamIT_T0_ES6_PKS3_l(ptr noundef nonnull align 8 dereferenceable(8) %7, ptr noundef nonnull @.str, i64 noundef 1)
  %9 = add nuw nsw i32 %.02, 1
  %10 = load i32, ptr %2, align 8, !tbaa !58
  %11 = icmp slt i32 %9, %10
  br i1 %11, label %6, label %._crit_edge, !llvm.loop !222
}